target datalayout = "e-m:e-p270:32:32-p271:32:32-p272:64:64-i64:64-i128:128-f80:128-n8:16:32:64-S128"
target triple = "x86_64-pc-linux-gnu"

; Function Attrs: nounwind uwtable
define i32 @png_gamma_significant(i32 noundef %0) #0 {
  %2 = alloca i32, align 4
  store i32 %0, ptr %2, align 4
  %3 = load i32, ptr %2, align 4
  %4 = icmp slt i32 %3, 95000
  br i1 %4, label %8, label %5

5:                                                ; preds = %1
  %6 = load i32, ptr %2, align 4
  %7 = icmp sgt i32 %6, 105000
  br label %8

8:                                                ; preds = %5, %1
  %9 = phi i1 [ true, %1 ], [ %7, %5 ]
  %10 = zext i1 %9 to i32
  ret i32 %10
}

; Function Attrs: nounwind uwtable
define internal void @png_build_16bit_table(ptr noalias noundef %0, ptr noundef %1, i32 noundef %2, i32 noundef %3) #0 {
  %5 = alloca ptr, align 8
  %6 = alloca ptr, align 8
  %7 = alloca i32, align 4
  %8 = alloca i32, align 4
  %9 = alloca i32, align 4
  %10 = alloca double, align 8
  %11 = alloca i32, align 4
  %12 = alloca i32, align 4
  %13 = alloca i32, align 4
  %14 = alloca ptr, align 8
  %15 = alloca ptr, align 8
  %16 = alloca i32, align 4
  %17 = alloca i32, align 4
  %18 = alloca double, align 8
  %19 = alloca i32, align 4
  %20 = alloca i32, align 4
  store ptr %0, ptr %5, align 8
  store ptr %1, ptr %6, align 8
  store i32 %2, ptr %7, align 4
  store i32 %3, ptr %8, align 4
  %21 = load i32, ptr %7, align 4
  %22 = sub i32 8, %21
  %23 = shl i32 1, %22
  store i32 %23, ptr %9, align 4
  %24 = load i32, ptr %7, align 4
  %25 = sub i32 16, %24
  %26 = shl i32 1, %25
  %27 = sub nsw i32 %26, 1
  %28 = sitofp i32 %27 to double
  %29 = fdiv double 1.000000e+00, %28
  store double %29, ptr %10, align 8
  %30 = load i32, ptr %7, align 4
  %31 = sub i32 16, %30
  %32 = shl i32 1, %31
  %33 = sub i32 %32, 1
  store i32 %33, ptr %11, align 4
  %34 = load i32, ptr %7, align 4
  %35 = sub i32 15, %34
  %36 = shl i32 1, %35
  store i32 %36, ptr %12, align 4
  %37 = load ptr, ptr %5, align 8
  %38 = load i32, ptr %9, align 4
  %39 = zext i32 %38 to i64
  %40 = mul i64 %39, 8
  %41 = call noalias ptr @png_calloc(ptr noundef %37, i64 noundef %40)
  %42 = load ptr, ptr %6, align 8
  store ptr %41, ptr %42, align 8
  store ptr %41, ptr %14, align 8
  store i32 0, ptr %13, align 4
  br label %43

43:                                               ; preds = %120, %4
  %44 = load i32, ptr %13, align 4
  %45 = load i32, ptr %9, align 4
  %46 = icmp ult i32 %44, %45
  br i1 %46, label %47, label %123

47:                                               ; preds = %43
  %48 = load ptr, ptr %5, align 8
  %49 = call noalias ptr @png_malloc(ptr noundef %48, i64 noundef 512)
  %50 = load ptr, ptr %14, align 8
  %51 = load i32, ptr %13, align 4
  %52 = zext i32 %51 to i64
  %53 = getelementptr inbounds ptr, ptr %50, i64 %52
  store ptr %49, ptr %53, align 8
  store ptr %49, ptr %15, align 8
  %54 = load i32, ptr %8, align 4
  %55 = call i32 @png_gamma_significant(i32 noundef %54)
  %56 = icmp ne i32 %55, 0
  br i1 %56, label %57, label %88

57:                                               ; preds = %47
  store i32 0, ptr %16, align 4
  br label %58

58:                                               ; preds = %84, %57
  %59 = load i32, ptr %16, align 4
  %60 = icmp ult i32 %59, 256
  br i1 %60, label %61, label %87

61:                                               ; preds = %58
  %62 = load i32, ptr %16, align 4
  %63 = load i32, ptr %7, align 4
  %64 = sub i32 8, %63
  %65 = shl i32 %62, %64
  %66 = load i32, ptr %13, align 4
  %67 = add i32 %65, %66
  store i32 %67, ptr %17, align 4
  %68 = load i32, ptr %17, align 4
  %69 = uitofp i32 %68 to double
  %70 = load double, ptr %10, align 8
  %71 = fmul double %69, %70
  %72 = load i32, ptr %8, align 4
  %73 = sitofp i32 %72 to double
  %74 = fmul double %73, 1.000000e-05
  %75 = call double @pow(double noundef %71, double noundef %74) #13
  %76 = call double @llvm.fmuladd.f64(double 6.553500e+04, double %75, double 5.000000e-01)
  %77 = call double @llvm.floor.f64(double %76)
  store double %77, ptr %18, align 8
  %78 = load double, ptr %18, align 8
  %79 = fptoui double %78 to i16
  %80 = load ptr, ptr %15, align 8
  %81 = load i32, ptr %16, align 4
  %82 = zext i32 %81 to i64
  %83 = getelementptr inbounds i16, ptr %80, i64 %82
  store i16 %79, ptr %83, align 2
  br label %84

84:                                               ; preds = %61
  %85 = load i32, ptr %16, align 4
  %86 = add i32 %85, 1
  store i32 %86, ptr %16, align 4
  br label %58, !llvm.loop !39

87:                                               ; preds = %58
  br label %119

88:                                               ; preds = %47
  store i32 0, ptr %19, align 4
  br label %89

89:                                               ; preds = %115, %88
  %90 = load i32, ptr %19, align 4
  %91 = icmp ult i32 %90, 256
  br i1 %91, label %92, label %118

92:                                               ; preds = %89
  %93 = load i32, ptr %19, align 4
  %94 = load i32, ptr %7, align 4
  %95 = sub i32 8, %94
  %96 = shl i32 %93, %95
  %97 = load i32, ptr %13, align 4
  %98 = add i32 %96, %97
  store i32 %98, ptr %20, align 4
  %99 = load i32, ptr %7, align 4
  %100 = icmp ne i32 %99, 0
  br i1 %100, label %101, label %108

101:                                              ; preds = %92
  %102 = load i32, ptr %20, align 4
  %103 = mul i32 %102, 65535
  %104 = load i32, ptr %12, align 4
  %105 = add i32 %103, %104
  %106 = load i32, ptr %11, align 4
  %107 = udiv i32 %105, %106
  store i32 %107, ptr %20, align 4
  br label %108

108:                                              ; preds = %101, %92
  %109 = load i32, ptr %20, align 4
  %110 = trunc i32 %109 to i16
  %111 = load ptr, ptr %15, align 8
  %112 = load i32, ptr %19, align 4
  %113 = zext i32 %112 to i64
  %114 = getelementptr inbounds i16, ptr %111, i64 %113
  store i16 %110, ptr %114, align 2
  br label %115

115:                                              ; preds = %108
  %116 = load i32, ptr %19, align 4
  %117 = add i32 %116, 1
  store i32 %117, ptr %19, align 4
  br label %89, !llvm.loop !40

118:                                              ; preds = %89
  br label %119

119:                                              ; preds = %118, %87
  br label %120

120:                                              ; preds = %119
  %121 = load i32, ptr %13, align 4
  %122 = add i32 %121, 1
  store i32 %122, ptr %13, align 4
  br label %43, !llvm.loop !41

123:                                              ; preds = %43
  ret void
}