; Function Attrs: nounwind uwtable
define internal fastcc void @png_build_16bit_table(ptr noalias noundef %0, ptr nocapture noundef writeonly %1, i32 noundef %2, i32 noundef %3) unnamed_addr #0 {
  %5 = sub nsw i32 8, %2
  %6 = shl nuw nsw i32 1, %5
  %7 = sub nuw nsw i32 16, %2
  %notmask = shl nsw i32 -1, %7
  %8 = xor i32 %notmask, -1
  %9 = uitofp nneg i32 %8 to double
  %10 = fdiv double 1.000000e+00, %9
  %11 = sub nuw nsw i32 15, %2
  %12 = shl nuw nsw i32 1, %11
  %13 = zext nneg i32 %6 to i64
  %14 = shl nuw nsw i64 %13, 3
  %15 = tail call noalias ptr @png_calloc(ptr noundef %0, i64 noundef %14) #29
  store ptr %15, ptr %1, align 8
  %16 = add i32 %3, -95000
  %17 = icmp ult i32 %16, 10001
  %18 = sitofp i32 %3 to double
  %19 = fmul double %18, 1.000000e-05
  br i1 %17, label %.split.us, label %.preheader40

.split.us:                                        ; preds = %4
  %.not39 = icmp eq i32 %2, 0
  br i1 %.not39, label %.preheader.us.us, label %.preheader.us

.preheader.us.us:                                 ; preds = %.split.us, %.loopexit.split.us.us.us
  %indvars.iv72 = phi i64 [ %indvars.iv.next73, %.loopexit.split.us.us.us ], [ 0, %.split.us ]
  %20 = tail call noalias ptr @png_malloc(ptr noundef %0, i64 noundef 512) #29
  %21 = getelementptr inbounds ptr, ptr %15, i64 %indvars.iv72
  store ptr %20, ptr %21, align 8
  %22 = trunc nuw nsw i64 %indvars.iv72 to i32
  br label %23

23:                                               ; preds = %23, %.preheader.us.us
  %indvars.iv68 = phi i64 [ %indvars.iv.next69, %23 ], [ 0, %.preheader.us.us ]
  %24 = trunc nuw nsw i64 %indvars.iv68 to i32
  %25 = shl nuw nsw i32 %24, %5
  %26 = add i32 %25, %22
  %27 = trunc i32 %26 to i16
  %28 = getelementptr inbounds i16, ptr %20, i64 %indvars.iv68
  store i16 %27, ptr %28, align 2
  %indvars.iv.next69 = add nuw nsw i64 %indvars.iv68, 1
  %exitcond71.not = icmp eq i64 %indvars.iv.next69, 256
  br i1 %exitcond71.not, label %.loopexit.split.us.us.us, label %23, !llvm.loop !93

.loopexit.split.us.us.us:                         ; preds = %23
  %indvars.iv.next73 = add nuw nsw i64 %indvars.iv72, 1
  %exitcond77.not = icmp eq i64 %indvars.iv.next73, %13
  br i1 %exitcond77.not, label %.split50.us, label %.preheader.us.us, !llvm.loop !94

.preheader.us:                                    ; preds = %.split.us, %.loopexit.split.us47
  %indvars.iv62 = phi i64 [ %indvars.iv.next63, %.loopexit.split.us47 ], [ 0, %.split.us ]
  %29 = tail call noalias ptr @png_malloc(ptr noundef %0, i64 noundef 512) #29
  %30 = getelementptr inbounds ptr, ptr %15, i64 %indvars.iv62
  store ptr %29, ptr %30, align 8
  %31 = trunc nuw nsw i64 %indvars.iv62 to i32
  br label %32

32:                                               ; preds = %.preheader.us, %32
  %indvars.iv58 = phi i64 [ 0, %.preheader.us ], [ %indvars.iv.next59, %32 ]
  %33 = trunc nuw nsw i64 %indvars.iv58 to i32
  %34 = shl nuw nsw i32 %33, %5
  %35 = add i32 %34, %31
  %36 = mul i32 %35, 65535
  %37 = add i32 %36, %12
  %38 = udiv i32 %37, %8
  %39 = trunc i32 %38 to i16
  %40 = getelementptr inbounds i16, ptr %29, i64 %indvars.iv58
  store i16 %39, ptr %40, align 2
  %indvars.iv.next59 = add nuw nsw i64 %indvars.iv58, 1
  %exitcond61.not = icmp eq i64 %indvars.iv.next59, 256
  br i1 %exitcond61.not, label %.loopexit.split.us47, label %32, !llvm.loop !93

.loopexit.split.us47:                             ; preds = %32
  %indvars.iv.next63 = add nuw nsw i64 %indvars.iv62, 1
  %exitcond67.not = icmp eq i64 %indvars.iv.next63, %13
  br i1 %exitcond67.not, label %.split50.us, label %.preheader.us, !llvm.loop !94

.preheader40:                                     ; preds = %4, %.loopexit41
  %indvars.iv54 = phi i64 [ %indvars.iv.next55, %.loopexit41 ], [ 0, %4 ]
  %41 = tail call noalias ptr @png_malloc(ptr noundef %0, i64 noundef 512) #29
  %42 = getelementptr inbounds ptr, ptr %15, i64 %indvars.iv54
  store ptr %41, ptr %42, align 8
  %43 = trunc nuw nsw i64 %indvars.iv54 to i32
  br label %44

44:                                               ; preds = %.preheader40, %44
  %indvars.iv = phi i64 [ 0, %.preheader40 ], [ %indvars.iv.next, %44 ]
  %45 = trunc nuw nsw i64 %indvars.iv to i32
  %46 = shl nuw nsw i32 %45, %5
  %47 = add i32 %46, %43
  %48 = uitofp i32 %47 to double
  %49 = fmul double %10, %48
  %50 = tail call double @pow(double noundef %49, double noundef %19) #29
  %51 = tail call double @llvm.fmuladd.f64(double %50, double 6.553500e+04, double 5.000000e-01)
  %52 = tail call double @llvm.floor.f64(double %51)
  %53 = fptoui double %52 to i16
  %54 = getelementptr inbounds i16, ptr %41, i64 %indvars.iv
  store i16 %53, ptr %54, align 2
  %indvars.iv.next = add nuw nsw i64 %indvars.iv, 1
  %exitcond.not = icmp eq i64 %indvars.iv.next, 256
  br i1 %exitcond.not, label %.loopexit41, label %44, !llvm.loop !95

.loopexit41:                                      ; preds = %44
  %indvars.iv.next55 = add nuw nsw i64 %indvars.iv54, 1
  %exitcond57.not = icmp eq i64 %indvars.iv.next55, %13
  br i1 %exitcond57.not, label %.split50.us, label %.preheader40, !llvm.loop !94

.split50.us:                                      ; preds = %.loopexit41, %.loopexit.split.us47, %.loopexit.split.us.us.us
  ret void
}